target datalayout = "e-m:e-p270:32:32-p271:32:32-p272:64:64-i64:64-i128:128-f80:128-n8:16:32:64-S128"
target triple = "x86_64-pc-linux-gnu"

%struct.recent_settings_tag = type { i8, i8, i8, i8, i8, i8, i8, i8, i8, i8, i32, i32, i32, i32, i32, i32, i8, i8, i32, i32, i8, i8, i8, i32, i32, i32, i32, i32, i32, i32, i32, i32, i8, i8, i32, i32, ptr, ptr, ptr, i8, i8, ptr, ptr, ptr, ptr, ptr, i32, ptr, i8, ptr, ptr, ptr }
%class.QString = type { %struct.QArrayDataPointer }
%struct.QArrayDataPointer = type { ptr, ptr, i64 }
%class.QWidget = type { %class.QObject, %class.QPaintDevice.base, ptr }
%class.QObject = type { ptr, %class.QScopedPointer }
%class.QScopedPointer = type { ptr }
%class.QPaintDevice.base = type <{ ptr, i16 }>
%class.QFrame = type { %class.QWidget }
%class.MainWindow = type { %class.QMainWindow, %class.CaptureFile, %class.QList.2, ptr, ptr, %class.QSplitter, %class.QSplitter, %class.QWidget, %class.QList.6, ptr, ptr, ptr, ptr, ptr, ptr, ptr, i8, %class.QList.10 }
%class.QMainWindow = type { %class.QWidget }
%class.CaptureFile = type { %class.QObject, ptr, %class.QString }
%class.QList.2 = type { %struct.QArrayDataPointer.5 }
%struct.QArrayDataPointer.5 = type { ptr, ptr, i64 }
%class.QSplitter = type { %class.QFrame }
%class.QList.6 = type { %struct.QArrayDataPointer.9 }
%struct.QArrayDataPointer.9 = type { ptr, ptr, i64 }
%class.QList.10 = type { %struct.QArrayDataPointer.13 }
%struct.QArrayDataPointer.13 = type { ptr, ptr, i64 }

@recent = external global %struct.recent_settings_tag, align 8

; Function Attrs: mustprogress null_pointer_is_valid sspstrong uwtable
define void @_ZN19WiresharkMainWindow40setTimeDisplaySecondsWithHoursAndMinutesEb(ptr noundef align 8 dereferenceable_or_null(560) %0, i1 noundef zeroext %1) #0 align 2 {
  %3 = alloca ptr, align 8
  %4 = alloca i8, align 1
  store ptr %0, ptr %3, align 8
  %5 = zext i1 %1 to i8
  store i8 %5, ptr %4, align 1
  %6 = load ptr, ptr %3, align 8
  %7 = load i8, ptr %4, align 1, !range !6, !noundef !7
  %8 = trunc i8 %7 to i1
  br i1 %8, label %9, label %10

9:                                                ; preds = %2
  store i32 1, ptr getelementptr inbounds nuw (%struct.recent_settings_tag, ptr @recent, i32 0, i32 12), align 4
  br label %11

10:                                               ; preds = %2
  store i32 0, ptr getelementptr inbounds nuw (%struct.recent_settings_tag, ptr @recent, i32 0, i32 12), align 4
  br label %11

11:                                               ; preds = %10, %9
  %12 = load i32, ptr getelementptr inbounds nuw (%struct.recent_settings_tag, ptr @recent, i32 0, i32 12), align 4
  call void @timestamp_set_seconds_type(i32 noundef %12)
  %13 = getelementptr inbounds nuw %class.MainWindow, ptr %6, i32 0, i32 9
  %14 = load ptr, ptr %13, align 8
  %15 = icmp ne ptr %14, null
  br i1 %15, label %16, label %21

16:                                               ; preds = %11
  %17 = getelementptr inbounds nuw %class.MainWindow, ptr %6, i32 0, i32 9
  %18 = load ptr, ptr %17, align 8
  call void @_ZN10PacketList12resetColumnsEv(ptr noundef align 8 dereferenceable_or_null(432) %18)
  %19 = getelementptr inbounds nuw %class.MainWindow, ptr %6, i32 0, i32 9
  %20 = load ptr, ptr %19, align 8
  call void @_ZN10PacketList16resizeAllColumnsEb(ptr noundef align 8 dereferenceable_or_null(432) %20, i1 noundef zeroext true)
  br label %21

21:                                               ; preds = %16, %11
  ret void
}