; Function Attrs: mustprogress null_pointer_is_valid sspstrong uwtable
define void @_ZN19WiresharkMainWindow40setTimeDisplaySecondsWithHoursAndMinutesEb(ptr noundef readonly align 8 captures(none) dereferenceable_or_null(560) %0, i1 noundef zeroext %1) local_unnamed_addr #0 align 2 {
  %. = zext i1 %1 to i32
  store i32 %., ptr getelementptr inbounds nuw (i8, ptr @recent, i64 20), align 4
  tail call void @timestamp_set_seconds_type(i32 noundef %.)
  %3 = getelementptr inbounds nuw i8, ptr %0, i64 272
  %4 = load ptr, ptr %3, align 8
  %.not = icmp eq ptr %4, null
  br i1 %.not, label %7, label %5

5:                                                ; preds = %2
  tail call void @_ZN10PacketList12resetColumnsEv(ptr noundef nonnull align 8 dereferenceable_or_null(432) %4)
  %6 = load ptr, ptr %3, align 8
  tail call void @_ZN10PacketList16resizeAllColumnsEb(ptr noundef align 8 dereferenceable_or_null(432) %6, i1 noundef zeroext true)
  br label %7

7:                                                ; preds = %5, %2
  ret void
}